target datalayout = "e-m:e-p270:32:32-p271:32:32-p272:64:64-i64:64-i128:128-f80:128-n8:16:32:64-S128"
target triple = "x86_64-pc-linux-gnu"

%struct.opts_multi_pack_index = type { ptr, ptr, ptr, i64, i32, i32 }
%struct.strbuf = type { i64, i64, ptr }
%struct.string_list = type { ptr, i64, i64, i8, ptr }

@the_repository = external global ptr, align 8
@opts = internal global %struct.opts_multi_pack_index zeroinitializer, align 8
@.str.9 = private unnamed_addr constant [27 x i8] c"builtin/multi-pack-index.c\00", align 1
@builtin_multi_pack_index_write_usage = internal constant [2 x ptr] [ptr @.str.24, ptr null], align 16
@__const.read_packs_from_stdin.buf = private unnamed_addr constant %struct.strbuf { i64 0, i64 0, ptr @strbuf_slopbuf }, align 8
@stdin = external global ptr, align 8

; Function Attrs: nounwind uwtable
define internal void @read_packs_from_stdin(ptr noundef %0) #0 {
  %2 = alloca ptr, align 8
  %3 = alloca %struct.strbuf, align 8
  store ptr %0, ptr %2, align 8, !tbaa !76
  call void @llvm.lifetime.start.p0(i64 24, ptr %3) #9
  call void @llvm.memcpy.p0.p0.i64(ptr align 8 %3, ptr align 8 @__const.read_packs_from_stdin.buf, i64 24, i1 false)
  br label %4

4:                                                ; preds = %8, %1
  %5 = load ptr, ptr @stdin, align 8, !tbaa !78
  %6 = call i32 @strbuf_getline(ptr noundef %3, ptr noundef %5)
  %7 = icmp ne i32 %6, -1
  br i1 %7, label %8, label %13

8:                                                ; preds = %4
  %9 = load ptr, ptr %2, align 8, !tbaa !76
  %10 = getelementptr inbounds nuw %struct.strbuf, ptr %3, i32 0, i32 2
  %11 = load ptr, ptr %10, align 8, !tbaa !80
  %12 = call ptr @string_list_append(ptr noundef %9, ptr noundef %11)
  br label %4, !llvm.loop !82

13:                                               ; preds = %4
  %14 = load ptr, ptr %2, align 8, !tbaa !76
  call void @string_list_sort(ptr noundef %14)
  call void @strbuf_release(ptr noundef %3)
  call void @llvm.lifetime.end.p0(i64 24, ptr %3) #9
  ret void
}

; Function Attrs: nounwind uwtable
define internal ptr @add_common_options(ptr noundef %0) #0 {
  %2 = alloca ptr, align 8
  store ptr %0, ptr %2, align 8, !tbaa !30
  %3 = load ptr, ptr %2, align 8, !tbaa !30
  %4 = call ptr @parse_options_concat(ptr noundef @common_opts, ptr noundef %3)
  ret ptr %4
}

; Function Attrs: inlinehint nounwind uwtable
define internal void @git_config(ptr noundef %0, ptr noundef %1) #4 {
  %3 = alloca ptr, align 8
  %4 = alloca ptr, align 8
  store ptr %0, ptr %3, align 8, !tbaa !15
  store ptr %1, ptr %4, align 8, !tbaa !15
  %5 = load ptr, ptr @the_repository, align 8, !tbaa !13
  %6 = load ptr, ptr %3, align 8, !tbaa !15
  %7 = load ptr, ptr %4, align 8, !tbaa !15
  call void @repo_config(ptr noundef %5, ptr noundef %6, ptr noundef %7)
  ret void
}

; Function Attrs: nounwind uwtable
define internal i32 @cmd_multi_pack_index_write(i32 noundef %0, ptr noundef %1, ptr noundef %2, ptr noundef %3) #0 {
  %5 = alloca i32, align 4
  %6 = alloca i32, align 4
  %7 = alloca ptr, align 8
  %8 = alloca ptr, align 8
  %9 = alloca ptr, align 8
  %10 = alloca ptr, align 8
  %11 = alloca i32, align 4
  %12 = alloca %struct.string_list, align 8
  %13 = alloca i32, align 4
  store i32 %0, ptr %6, align 4, !tbaa !4
  store ptr %1, ptr %7, align 8, !tbaa !8
  store ptr %2, ptr %8, align 8, !tbaa !11
  store ptr %3, ptr %9, align 8, !tbaa !13
  call void @llvm.lifetime.start.p0(i64 8, ptr %10) #9
  call void @llvm.lifetime.start.p0(i64 4, ptr %11) #9
  %14 = load i32, ptr getelementptr inbounds nuw (%struct.opts_multi_pack_index, ptr @opts, i32 0, i32 4), align 8, !tbaa !69
  %15 = or i32 %14, 8
  store i32 %15, ptr getelementptr inbounds nuw (%struct.opts_multi_pack_index, ptr @opts, i32 0, i32 4), align 8, !tbaa !69
  call void @git_config(ptr noundef @git_multi_pack_index_write_config, ptr noundef null)
  %16 = call ptr @add_common_options(ptr noundef @cmd_multi_pack_index_write.builtin_multi_pack_index_write_options)
  store ptr %16, ptr %10, align 8, !tbaa !30
  %17 = load ptr, ptr %7, align 8, !tbaa !8
  %18 = getelementptr inbounds ptr, ptr %17, i64 0
  %19 = load ptr, ptr %18, align 8, !tbaa !11
  call void @trace2_cmd_mode_fl(ptr noundef @.str.9, i32 noundef 150, ptr noundef %19)
  %20 = call i32 @isatty(i32 noundef 2) #9
  %21 = icmp ne i32 %20, 0
  br i1 %21, label %22, label %25

22:                                               ; preds = %4
  %23 = load i32, ptr getelementptr inbounds nuw (%struct.opts_multi_pack_index, ptr @opts, i32 0, i32 4), align 8, !tbaa !69
  %24 = or i32 %23, 1
  store i32 %24, ptr getelementptr inbounds nuw (%struct.opts_multi_pack_index, ptr @opts, i32 0, i32 4), align 8, !tbaa !69
  br label %25

25:                                               ; preds = %22, %4
  %26 = load i32, ptr %6, align 4, !tbaa !4
  %27 = load ptr, ptr %7, align 8, !tbaa !8
  %28 = load ptr, ptr %8, align 8, !tbaa !11
  %29 = load ptr, ptr %10, align 8, !tbaa !30
  %30 = call i32 @parse_options(i32 noundef %26, ptr noundef %27, ptr noundef %28, ptr noundef %29, ptr noundef @builtin_multi_pack_index_write_usage, i32 noundef 0)
  store i32 %30, ptr %6, align 4, !tbaa !4
  %31 = load i32, ptr %6, align 4, !tbaa !4
  %32 = icmp ne i32 %31, 0
  br i1 %32, label %33, label %35

33:                                               ; preds = %25
  %34 = load ptr, ptr %10, align 8, !tbaa !30
  call void @usage_with_options(ptr noundef @builtin_multi_pack_index_write_usage, ptr noundef %34) #10
  unreachable

35:                                               ; preds = %25
  br label %36

36:                                               ; preds = %35
  %37 = load ptr, ptr %10, align 8, !tbaa !30
  call void @free(ptr noundef %37) #9
  store ptr null, ptr %10, align 8, !tbaa !30
  br label %38

38:                                               ; preds = %36
  br label %39

39:                                               ; preds = %38
  %40 = load i32, ptr getelementptr inbounds nuw (%struct.opts_multi_pack_index, ptr @opts, i32 0, i32 5), align 4, !tbaa !71
  %41 = icmp ne i32 %40, 0
  br i1 %41, label %42, label %52

42:                                               ; preds = %39
  call void @llvm.lifetime.start.p0(i64 40, ptr %12) #9
  call void @llvm.memset.p0.i64(ptr align 8 %12, i8 0, i64 40, i1 false)
  %43 = getelementptr inbounds { ptr, i64, i64, i8, [7 x i8], ptr }, ptr %12, i32 0, i32 3
  store i8 1, ptr %43, align 8
  call void @read_packs_from_stdin(ptr noundef %12)
  %44 = load ptr, ptr %9, align 8, !tbaa !13
  %45 = load ptr, ptr @opts, align 8, !tbaa !67
  %46 = load ptr, ptr getelementptr inbounds nuw (%struct.opts_multi_pack_index, ptr @opts, i32 0, i32 1), align 8, !tbaa !72
  %47 = load ptr, ptr getelementptr inbounds nuw (%struct.opts_multi_pack_index, ptr @opts, i32 0, i32 2), align 8, !tbaa !73
  %48 = load i32, ptr getelementptr inbounds nuw (%struct.opts_multi_pack_index, ptr @opts, i32 0, i32 4), align 8, !tbaa !69
  %49 = call i32 @write_midx_file_only(ptr noundef %44, ptr noundef %45, ptr noundef %12, ptr noundef %46, ptr noundef %47, i32 noundef %48)
  store i32 %49, ptr %11, align 4, !tbaa !4
  call void @string_list_clear(ptr noundef %12, i32 noundef 0)
  %50 = load ptr, ptr getelementptr inbounds nuw (%struct.opts_multi_pack_index, ptr @opts, i32 0, i32 2), align 8, !tbaa !73
  call void @free(ptr noundef %50) #9
  %51 = load i32, ptr %11, align 4, !tbaa !4
  store i32 %51, ptr %5, align 4
  store i32 1, ptr %13, align 4
  call void @llvm.lifetime.end.p0(i64 40, ptr %12) #9
  br label %61

52:                                               ; preds = %39
  %53 = load ptr, ptr %9, align 8, !tbaa !13
  %54 = load ptr, ptr @opts, align 8, !tbaa !67
  %55 = load ptr, ptr getelementptr inbounds nuw (%struct.opts_multi_pack_index, ptr @opts, i32 0, i32 1), align 8, !tbaa !72
  %56 = load ptr, ptr getelementptr inbounds nuw (%struct.opts_multi_pack_index, ptr @opts, i32 0, i32 2), align 8, !tbaa !73
  %57 = load i32, ptr getelementptr inbounds nuw (%struct.opts_multi_pack_index, ptr @opts, i32 0, i32 4), align 8, !tbaa !69
  %58 = call i32 @write_midx_file(ptr noundef %53, ptr noundef %54, ptr noundef %55, ptr noundef %56, i32 noundef %57)
  store i32 %58, ptr %11, align 4, !tbaa !4
  %59 = load ptr, ptr getelementptr inbounds nuw (%struct.opts_multi_pack_index, ptr @opts, i32 0, i32 2), align 8, !tbaa !73
  call void @free(ptr noundef %59) #9
  %60 = load i32, ptr %11, align 4, !tbaa !4
  store i32 %60, ptr %5, align 4
  store i32 1, ptr %13, align 4
  br label %61

61:                                               ; preds = %52, %42
  call void @llvm.lifetime.end.p0(i64 4, ptr %11) #9
  call void @llvm.lifetime.end.p0(i64 8, ptr %10) #9
  %62 = load i32, ptr %5, align 4
  ret i32 %62
}