; Function Attrs: nounwind uwtable
define internal i32 @cmd_multi_pack_index_write(i32 noundef %0, ptr noundef %1, ptr noundef %2, ptr noundef %3) #0 {
  %5 = alloca %struct.strbuf, align 8
  %6 = alloca %struct.string_list, align 8
  %7 = load i32, ptr getelementptr inbounds nuw (i8, ptr @opts, i64 32), align 8, !tbaa !57
  %8 = or i32 %7, 8
  store i32 %8, ptr getelementptr inbounds nuw (i8, ptr @opts, i64 32), align 8, !tbaa !57
  %9 = load ptr, ptr @the_repository, align 8, !tbaa !17
  tail call void @repo_config(ptr noundef %9, ptr noundef nonnull @git_multi_pack_index_write_config, ptr noundef null) #9
  %10 = tail call ptr @parse_options_concat(ptr noundef nonnull @common_opts, ptr noundef nonnull @cmd_multi_pack_index_write.builtin_multi_pack_index_write_options) #9
  %11 = load ptr, ptr %1, align 8, !tbaa !56
  tail call void @trace2_cmd_mode_fl(ptr noundef nonnull @.str.9, i32 noundef 150, ptr noundef %11) #9
  %12 = tail call i32 @isatty(i32 noundef 2) #9
  %.not = icmp eq i32 %12, 0
  br i1 %.not, label %16, label %13

13:                                               ; preds = %4
  %14 = load i32, ptr getelementptr inbounds nuw (i8, ptr @opts, i64 32), align 8, !tbaa !57
  %15 = or i32 %14, 1
  store i32 %15, ptr getelementptr inbounds nuw (i8, ptr @opts, i64 32), align 8, !tbaa !57
  br label %16

16:                                               ; preds = %13, %4
  %17 = tail call i32 @parse_options(i32 noundef %0, ptr noundef nonnull %1, ptr noundef %2, ptr noundef %10, ptr noundef nonnull @builtin_multi_pack_index_write_usage, i32 noundef 0) #9
  %.not12 = icmp eq i32 %17, 0
  br i1 %.not12, label %19, label %18

18:                                               ; preds = %16
  tail call void @usage_with_options(ptr noundef nonnull @builtin_multi_pack_index_write_usage, ptr noundef %10) #10
  unreachable

19:                                               ; preds = %16
  tail call void @free(ptr noundef %10) #9
  %20 = load i32, ptr getelementptr inbounds nuw (i8, ptr @opts, i64 36), align 4, !tbaa !59
  %.not13 = icmp eq i32 %20, 0
  br i1 %.not13, label %37, label %21

21:                                               ; preds = %19
  call void @llvm.lifetime.start.p0(i64 40, ptr nonnull %6) #9
  call void @llvm.memset.p0.i64(ptr noundef nonnull align 8 dereferenceable(40) %6, i8 0, i64 40, i1 false)
  %22 = getelementptr inbounds nuw i8, ptr %6, i64 24
  store i8 1, ptr %22, align 8
  call void @llvm.lifetime.start.p0(i64 24, ptr nonnull %5) #9
  call void @llvm.memcpy.p0.p0.i64(ptr noundef nonnull align 8 dereferenceable(24) %5, ptr noundef nonnull align 8 dereferenceable(24) @__const.read_packs_from_stdin.buf, i64 24, i1 false)
  %23 = load ptr, ptr @stdin, align 8, !tbaa !60
  %24 = call i32 @strbuf_getline(ptr noundef nonnull %5, ptr noundef %23) #9
  %.not2.i = icmp eq i32 %24, -1
  br i1 %.not2.i, label %read_packs_from_stdin.exit, label %.lr.ph.i

.lr.ph.i:                                         ; preds = %21
  %25 = getelementptr inbounds nuw i8, ptr %5, i64 16
  br label %26

26:                                               ; preds = %26, %.lr.ph.i
  %27 = load ptr, ptr %25, align 8, !tbaa !62
  %28 = call ptr @string_list_append(ptr noundef nonnull %6, ptr noundef %27) #9
  %29 = load ptr, ptr @stdin, align 8, !tbaa !60
  %30 = call i32 @strbuf_getline(ptr noundef nonnull %5, ptr noundef %29) #9
  %.not.i = icmp eq i32 %30, -1
  br i1 %.not.i, label %read_packs_from_stdin.exit, label %26, !llvm.loop !64

read_packs_from_stdin.exit:                       ; preds = %26, %21
  call void @string_list_sort(ptr noundef nonnull %6) #9
  call void @strbuf_release(ptr noundef nonnull %5) #9
  call void @llvm.lifetime.end.p0(i64 24, ptr nonnull %5) #9
  %31 = load ptr, ptr @opts, align 8, !tbaa !54
  %32 = load ptr, ptr getelementptr inbounds nuw (i8, ptr @opts, i64 8), align 8, !tbaa !66
  %33 = load ptr, ptr getelementptr inbounds nuw (i8, ptr @opts, i64 16), align 8, !tbaa !67
  %34 = load i32, ptr getelementptr inbounds nuw (i8, ptr @opts, i64 32), align 8, !tbaa !57
  %35 = call i32 @write_midx_file_only(ptr noundef %3, ptr noundef %31, ptr noundef nonnull %6, ptr noundef %32, ptr noundef %33, i32 noundef %34) #9
  call void @string_list_clear(ptr noundef nonnull %6, i32 noundef 0) #9
  %36 = load ptr, ptr getelementptr inbounds nuw (i8, ptr @opts, i64 16), align 8, !tbaa !67
  call void @free(ptr noundef %36) #9
  call void @llvm.lifetime.end.p0(i64 40, ptr nonnull %6) #9
  br label %44

37:                                               ; preds = %19
  %38 = load ptr, ptr @opts, align 8, !tbaa !54
  %39 = load ptr, ptr getelementptr inbounds nuw (i8, ptr @opts, i64 8), align 8, !tbaa !66
  %40 = load ptr, ptr getelementptr inbounds nuw (i8, ptr @opts, i64 16), align 8, !tbaa !67
  %41 = load i32, ptr getelementptr inbounds nuw (i8, ptr @opts, i64 32), align 8, !tbaa !57
  %42 = tail call i32 @write_midx_file(ptr noundef %3, ptr noundef %38, ptr noundef %39, ptr noundef %40, i32 noundef %41) #9
  %43 = load ptr, ptr getelementptr inbounds nuw (i8, ptr @opts, i64 16), align 8, !tbaa !67
  tail call void @free(ptr noundef %43) #9
  br label %44

44:                                               ; preds = %37, %read_packs_from_stdin.exit
  %.0 = phi i32 [ %35, %read_packs_from_stdin.exit ], [ %42, %37 ]
  ret i32 %.0
}